; Function Attrs: mustprogress uwtable
define noundef nonnull ptr @ggml_backend_cpu_init() local_unnamed_addr #0 personality ptr @__gxx_personality_v0 {
  tail call void @ggml_cpu_init()
  %1 = tail call noalias noundef nonnull dereferenceable(48) ptr @_Znwm(i64 noundef 48) #27
  store i32 4, ptr %1, align 8, !tbaa !16
  %2 = getelementptr inbounds nuw i8, ptr %1, i64 8
  tail call void @llvm.memset.p0.i64(ptr noundef nonnull align 8 dereferenceable(40) %2, i8 0, i64 40, i1 false)
  %3 = tail call noalias noundef nonnull dereferenceable(128) ptr @_Znwm(i64 noundef 128) #27
  store ptr @_ZZL21ggml_backend_cpu_guidvE4guid, ptr %3, align 16, !tbaa !22
  %4 = getelementptr inbounds nuw i8, ptr %3, i64 8
  tail call void @llvm.memcpy.p0.p0.i64(ptr noundef nonnull align 8 dereferenceable(104) %4, ptr noundef nonnull align 8 dereferenceable(104) @_ZL18ggml_backend_cpu_i, i64 104, i1 false), !tbaa.struct !26
  invoke void @ggml_cpu_init()
          to label %ggml_backend_cpu_reg.exit unwind label %9

ggml_backend_cpu_reg.exit:                        ; preds = %0
  %5 = invoke ptr @ggml_backend_reg_dev_get(ptr noundef nonnull @_ZZ20ggml_backend_cpu_regE20ggml_backend_cpu_reg, i64 noundef 0)
          to label %6 unwind label %9

6:                                                ; preds = %ggml_backend_cpu_reg.exit
  %7 = getelementptr inbounds nuw i8, ptr %3, i64 112
  store ptr %5, ptr %7, align 16, !tbaa !28
  %8 = getelementptr inbounds nuw i8, ptr %3, i64 120
  store ptr %1, ptr %8, align 8, !tbaa !29
  ret ptr %3

9:                                                ; preds = %0, %ggml_backend_cpu_reg.exit
  %10 = landingpad { ptr, i32 }
          cleanup
  tail call void @_ZdlPvm(ptr noundef nonnull %3, i64 noundef 128) #28
  resume { ptr, i32 } %10
}